target datalayout = "e-m:e-p270:32:32-p271:32:32-p272:64:64-i64:64-i128:128-f80:128-n8:16:32:64-S128"
target triple = "x86_64-pc-linux-gnu"

%struct.HTable = type { i32, ptr }
%struct.Module_ = type { ptr, ptr, ptr, i16, i32, ptr, %struct.HTable, ptr, ptr, ptr, ptr, ptr, ptr, ptr, ptr, ptr }
%union.SourceSpan = type { i64 }
%struct.GenContext_ = type { i8, ptr, ptr, ptr, ptr, ptr, ptr, ptr, ptr, ptr, ptr, ptr, ptr, ptr, ptr, ptr, ptr, ptr, ptr, ptr, ptr, ptr, ptr, ptr, ptr, ptr, ptr, ptr, ptr, ptr, ptr, ptr, ptr, %struct.anon.85, i32, i32, %struct.DebugContext, ptr, ptr, ptr, %struct.BEValue, i8, %union.SourceSpan, ptr, ptr, ptr, ptr }
%struct.anon.85 = type { ptr, ptr, ptr }
%struct.DebugContext = type { i16, ptr, ptr, %struct.DebugFile_, ptr, ptr, ptr, ptr }
%struct.DebugFile_ = type { i16, ptr }
%struct.BEValue = type { i8, i32, ptr, ptr, ptr }

@.str.165 = private unnamed_addr constant [38 x i8] c"LLVM error generating code for %s: %s\00", align 1
@.str.166 = private unnamed_addr constant [8 x i8] c"warning\00", align 1
@.str.167 = private unnamed_addr constant [7 x i8] c"remark\00", align 1
@.str.168 = private unnamed_addr constant [5 x i8] c"note\00", align 1
@.str.169 = private unnamed_addr constant [8 x i8] c"message\00", align 1

; Function Attrs: nounwind uwtable
define internal void @diagnostics_handler(ptr noundef %0, ptr noundef %1) #0 {
  %3 = alloca ptr, align 8
  %4 = alloca ptr, align 8
  %5 = alloca ptr, align 8
  %6 = alloca i32, align 4
  %7 = alloca ptr, align 8
  store ptr %0, ptr %3, align 8
  store ptr %1, ptr %4, align 8
  %8 = load ptr, ptr %3, align 8
  %9 = call ptr @LLVMGetDiagInfoDescription(ptr noundef %8)
  store ptr %9, ptr %5, align 8
  %10 = load ptr, ptr %3, align 8
  %11 = call i32 @LLVMGetDiagInfoSeverity(ptr noundef %10)
  store i32 %11, ptr %6, align 4
  %12 = load i32, ptr %6, align 4
  switch i32 %12, label %23 [
    i32 0, label %13
    i32 1, label %20
    i32 2, label %21
    i32 3, label %22
  ]

13:                                               ; preds = %2
  %14 = load ptr, ptr %4, align 8
  %15 = getelementptr inbounds %struct.GenContext_, ptr %14, i32 0, i32 37
  %16 = load ptr, ptr %15, align 8
  %17 = getelementptr inbounds %struct.Module_, ptr %16, i32 0, i32 0
  %18 = load ptr, ptr %17, align 8
  %19 = load ptr, ptr %5, align 8
  call void (ptr, ...) @error_exit(ptr noundef @.str.165, ptr noundef %18, ptr noundef %19) #9
  unreachable

20:                                               ; preds = %2
  store ptr @.str.166, ptr %7, align 8
  br label %24

21:                                               ; preds = %2
  store ptr @.str.167, ptr %7, align 8
  br label %24

22:                                               ; preds = %2
  store ptr @.str.168, ptr %7, align 8
  br label %24

23:                                               ; preds = %2
  store ptr @.str.169, ptr %7, align 8
  br label %24

24:                                               ; preds = %23, %22, %21, %20
  br label %25

25:                                               ; preds = %24
  br label %26

26:                                               ; preds = %25
  %27 = load ptr, ptr %5, align 8
  call void @LLVMDisposeMessage(ptr noundef %27)
  ret void
}