; Function Attrs: nounwind uwtable
define internal void @diagnostics_handler(ptr noundef %0, ptr nocapture noundef readonly %1) #0 {
  %3 = tail call ptr @LLVMGetDiagInfoDescription(ptr noundef %0) #10
  %4 = tail call i32 @LLVMGetDiagInfoSeverity(ptr noundef %0) #10
  %cond = icmp eq i32 %4, 0
  br i1 %cond, label %5, label %9

5:                                                ; preds = %2
  %6 = getelementptr inbounds i8, ptr %1, i64 368
  %7 = load ptr, ptr %6, align 8
  %8 = load ptr, ptr %7, align 8
  tail call void (ptr, ...) @error_exit(ptr noundef nonnull @.str.165, ptr noundef %8, ptr noundef %3) #12
  unreachable

9:                                                ; preds = %2
  tail call void @LLVMDisposeMessage(ptr noundef %3) #10
  ret void
}